	.file	"terne.c"
	.text
.Ltext0:
	.cfi_sections	.debug_frame
	.def	__main;	.scl	2;	.type	32;	.endef
	.section .rdata,"dr"
	.align 8
.LC0:
	.ascii "Inserisci il numero di terne pitagoriche da generare: \0"
.LC1:
	.ascii "%d\0"
	.align 8
.LC2:
	.ascii "Le prime %d terne pitagoriche sono:\12\0"
.LC3:
	.ascii "%d %d %d\12\0"
	.text
	.globl	main
	.def	main;	.scl	2;	.type	32;	.endef
	.seh_proc	main
main:
.LFB13:
	.file 1 "terne.c"
	.loc 1 5 1
	.cfi_startproc
	pushq	%rbp
	.seh_pushreg	%rbp
	.cfi_def_cfa_offset 16
	.cfi_offset 6, -16
	movq	%rsp, %rbp
	.seh_setframe	%rbp, 0
	.cfi_def_cfa_register 6
	subq	$64, %rsp
	.seh_stackalloc	64
	.seh_endprologue
	.loc 1 5 1
	call	__main
.LVL0:
	.loc 1 6 12
	movl	$1, -4(%rbp)
	.loc 1 7 9
	movl	$0, -16(%rbp)
	.loc 1 9 5
	leaq	.LC0(%rip), %rcx
	call	printf
	.loc 1 10 5
	leaq	-20(%rbp), %rax
	movq	%rax, %rdx
	leaq	.LC1(%rip), %rcx
	call	scanf
	.loc 1 12 5
	movl	-20(%rbp), %eax
	movl	%eax, %edx
	leaq	.LC2(%rip), %rcx
	call	printf
	.loc 1 15 11
	jmp	.L2
.L8:
	.loc 1 18 11
	movl	-4(%rbp), %eax
	movl	%eax, -8(%rbp)
	.loc 1 19 15
	jmp	.L3
.L7:
	.loc 1 22 15
	movl	-8(%rbp), %eax
	movl	%eax, -12(%rbp)
	.loc 1 23 19
	jmp	.L4
.L6:
	.loc 1 26 24
	movl	-4(%rbp), %eax
	imull	-4(%rbp), %eax
	movl	%eax, %edx
	.loc 1 26 34
	movl	-8(%rbp), %eax
	imull	-8(%rbp), %eax
	.loc 1 26 29
	addl	%eax, %edx
	.loc 1 26 45
	movl	-12(%rbp), %eax
	imull	-12(%rbp), %eax
	.loc 1 26 20
	cmpl	%eax, %edx
	jne	.L5
	.loc 1 28 21
	movl	-12(%rbp), %ecx
	movl	-8(%rbp), %edx
	movl	-4(%rbp), %eax
	movl	%ecx, %r9d
	movl	%edx, %r8d
	movl	%eax, %edx
	leaq	.LC3(%rip), %rcx
	call	printf
	.loc 1 29 28
	addl	$1, -16(%rbp)
.L5:
	.loc 1 31 18
	addl	$1, -12(%rbp)
.L4:
	.loc 1 23 27
	movl	-8(%rbp), %eax
	addl	%eax, %eax
	.loc 1 23 19
	cmpl	%eax, -12(%rbp)
	jle	.L6
	.loc 1 33 14
	addl	$1, -8(%rbp)
.L3:
	.loc 1 19 23
	movl	-4(%rbp), %eax
	addl	%eax, %eax
	.loc 1 19 15
	cmpl	%eax, -8(%rbp)
	jle	.L7
	.loc 1 35 10
	addl	$1, -4(%rbp)
.L2:
	.loc 1 15 20
	movl	-20(%rbp), %eax
	.loc 1 15 11
	cmpl	%eax, -16(%rbp)
	jl	.L8
	.loc 1 38 12
	movl	$0, %eax
	.loc 1 39 1
	addq	$64, %rsp
	popq	%rbp
	.cfi_restore 6
	.cfi_def_cfa 7, 8
	ret
	.cfi_endproc
.LFE13:
	.seh_endproc
.Letext0: